; Function Attrs: mustprogress uwtable
define void @_ZN2cv15line_descriptor11LSDDetector17createLSDDetectorENS0_8LSDParamE(ptr dead_on_unwind noalias writable writeonly sret(%"struct.cv::Ptr") align 8 captures(none) %0, ptr noundef readonly byval(%"struct.cv::line_descriptor::LSDParam") align 8 captures(none) %1) local_unnamed_addr #3 align 2 personality ptr @__gxx_personality_v0 {
  %3 = tail call noalias noundef nonnull dereferenceable(88) ptr @_Znwm(i64 noundef 88) #22
  invoke void @_ZN2cv9AlgorithmC2Ev(ptr noundef nonnull align 8 dereferenceable(88) %3)
          to label %4 unwind label %25

4:                                                ; preds = %2
  store ptr getelementptr inbounds nuw inrange(-16, 64) (i8, ptr @_ZTVN2cv15line_descriptor11LSDDetectorE, i64 16), ptr %3, align 8, !tbaa !3
  %5 = getelementptr inbounds nuw i8, ptr %3, i64 8
  tail call void @llvm.memset.p0.i64(ptr noundef nonnull align 8 dereferenceable(24) %5, i8 0, i64 24, i1 false)
  %6 = getelementptr inbounds nuw i8, ptr %3, i64 32
  call void @llvm.memcpy.p0.p0.i64(ptr noundef nonnull align 8 dereferenceable(56) %6, ptr noundef nonnull align 8 dereferenceable(56) %1, i64 56, i1 false)
  store ptr %3, ptr %0, align 8, !tbaa !17
  %7 = getelementptr inbounds nuw i8, ptr %0, i64 8
  store ptr null, ptr %7, align 8, !tbaa !23
  %8 = invoke noalias noundef nonnull dereferenceable(24) ptr @_Znwm(i64 noundef 24) #22
          to label %_ZN2cv3PtrINS_15line_descriptor11LSDDetectorEEC2IS2_EEPT_.exit unwind label %9

9:                                                ; preds = %4
  %10 = landingpad { ptr, i32 }
          catch ptr null
  %11 = extractvalue { ptr, i32 } %10, 0
  %12 = tail call ptr @__cxa_begin_catch(ptr %11) #23
  %13 = load ptr, ptr %3, align 8, !tbaa !3
  %14 = getelementptr inbounds nuw i8, ptr %13, i64 8
  %15 = load ptr, ptr %14, align 8
  tail call void %15(ptr noundef nonnull align 8 dereferenceable(88) %3) #23
  invoke void @__cxa_rethrow() #24
          to label %21 unwind label %16

16:                                               ; preds = %9
  %17 = landingpad { ptr, i32 }
          cleanup
  invoke void @__cxa_end_catch()
          to label %common.resume unwind label %18

common.resume:                                    ; preds = %16, %25
  %common.resume.op = phi { ptr, i32 } [ %26, %25 ], [ %17, %16 ]
  resume { ptr, i32 } %common.resume.op

18:                                               ; preds = %16
  %19 = landingpad { ptr, i32 }
          catch ptr null
  %20 = extractvalue { ptr, i32 } %19, 0
  tail call void @__clang_call_terminate(ptr %20) #25
  unreachable

21:                                               ; preds = %9
  unreachable

_ZN2cv3PtrINS_15line_descriptor11LSDDetectorEEC2IS2_EEPT_.exit: ; preds = %4
  %22 = getelementptr inbounds nuw i8, ptr %8, i64 8
  store i32 1, ptr %22, align 8, !tbaa !24
  %23 = getelementptr inbounds nuw i8, ptr %8, i64 12
  store i32 1, ptr %23, align 4, !tbaa !26
  store ptr getelementptr inbounds nuw inrange(-16, 40) (i8, ptr @_ZTVSt15_Sp_counted_ptrIPN2cv15line_descriptor11LSDDetectorELN9__gnu_cxx12_Lock_policyE2EE, i64 16), ptr %8, align 8, !tbaa !3
  %24 = getelementptr inbounds nuw i8, ptr %8, i64 16
  store ptr %3, ptr %24, align 8, !tbaa !27
  store ptr %8, ptr %7, align 8, !tbaa !23
  ret void

25:                                               ; preds = %2
  %26 = landingpad { ptr, i32 }
          cleanup
  tail call void @_ZdlPv(ptr noundef nonnull %3) #26
  br label %common.resume
}